target datalayout = "e-m:e-p270:32:32-p271:32:32-p272:64:64-i64:64-i128:128-f80:128-n8:16:32:64-S128"
target triple = "x86_64-pc-linux-gnu"

%struct.mbedtls_mpi = type { ptr, i16, i16 }

; Function Attrs: nounwind uwtable
define internal i32 @ecjpake_mul_secret(ptr noundef %0, i32 noundef %1, ptr noundef %2, ptr noundef %3, ptr noundef %4, ptr noundef %5, ptr noundef %6) #0 {
  %8 = alloca ptr, align 8
  %9 = alloca i32, align 4
  %10 = alloca ptr, align 8
  %11 = alloca ptr, align 8
  %12 = alloca ptr, align 8
  %13 = alloca ptr, align 8
  %14 = alloca ptr, align 8
  %15 = alloca i32, align 4
  %16 = alloca %struct.mbedtls_mpi, align 8
  store ptr %0, ptr %8, align 8, !tbaa !31
  store i32 %1, ptr %9, align 4, !tbaa !19
  store ptr %2, ptr %10, align 8, !tbaa !31
  store ptr %3, ptr %11, align 8, !tbaa !31
  store ptr %4, ptr %12, align 8, !tbaa !31
  store ptr %5, ptr %13, align 8, !tbaa !30
  store ptr %6, ptr %14, align 8, !tbaa !30
  call void @llvm.lifetime.start.p0(i64 4, ptr %15) #9
  store i32 -110, ptr %15, align 4, !tbaa !19
  call void @llvm.lifetime.start.p0(i64 16, ptr %16) #9
  call void @mbedtls_mpi_init(ptr noundef %16)
  br label %17

17:                                               ; preds = %7
  %18 = load ptr, ptr %13, align 8, !tbaa !30
  %19 = load ptr, ptr %14, align 8, !tbaa !30
  %20 = call i32 @mbedtls_mpi_fill_random(ptr noundef %16, i64 noundef 16, ptr noundef %18, ptr noundef %19)
  store i32 %20, ptr %15, align 4, !tbaa !19
  %21 = icmp ne i32 %20, 0
  br i1 %21, label %22, label %23

22:                                               ; preds = %17
  br label %68

23:                                               ; preds = %17
  br label %24

24:                                               ; preds = %23
  br label %25

25:                                               ; preds = %24
  br label %26

26:                                               ; preds = %25
  %27 = load ptr, ptr %12, align 8, !tbaa !31
  %28 = call i32 @mbedtls_mpi_mul_mpi(ptr noundef %16, ptr noundef %16, ptr noundef %27)
  store i32 %28, ptr %15, align 4, !tbaa !19
  %29 = icmp ne i32 %28, 0
  br i1 %29, label %30, label %31

30:                                               ; preds = %26
  br label %68

31:                                               ; preds = %26
  br label %32

32:                                               ; preds = %31
  br label %33

33:                                               ; preds = %32
  br label %34

34:                                               ; preds = %33
  %35 = load ptr, ptr %11, align 8, !tbaa !31
  %36 = call i32 @mbedtls_mpi_add_mpi(ptr noundef %16, ptr noundef %16, ptr noundef %35)
  store i32 %36, ptr %15, align 4, !tbaa !19
  %37 = icmp ne i32 %36, 0
  br i1 %37, label %38, label %39

38:                                               ; preds = %34
  br label %68

39:                                               ; preds = %34
  br label %40

40:                                               ; preds = %39
  br label %41

41:                                               ; preds = %40
  br label %42

42:                                               ; preds = %41
  %43 = load ptr, ptr %8, align 8, !tbaa !31
  %44 = load ptr, ptr %10, align 8, !tbaa !31
  %45 = call i32 @mbedtls_mpi_mul_mpi(ptr noundef %43, ptr noundef %44, ptr noundef %16)
  store i32 %45, ptr %15, align 4, !tbaa !19
  %46 = icmp ne i32 %45, 0
  br i1 %46, label %47, label %48

47:                                               ; preds = %42
  br label %68

48:                                               ; preds = %42
  br label %49

49:                                               ; preds = %48
  br label %50

50:                                               ; preds = %49
  %51 = load i32, ptr %9, align 4, !tbaa !19
  %52 = load ptr, ptr %8, align 8, !tbaa !31
  %53 = getelementptr inbounds nuw %struct.mbedtls_mpi, ptr %52, i32 0, i32 1
  %54 = load i16, ptr %53, align 8, !tbaa !37
  %55 = sext i16 %54 to i32
  %56 = mul nsw i32 %55, %51
  %57 = trunc i32 %56 to i16
  store i16 %57, ptr %53, align 8, !tbaa !37
  br label %58

58:                                               ; preds = %50
  %59 = load ptr, ptr %8, align 8, !tbaa !31
  %60 = load ptr, ptr %8, align 8, !tbaa !31
  %61 = load ptr, ptr %12, align 8, !tbaa !31
  %62 = call i32 @mbedtls_mpi_mod_mpi(ptr noundef %59, ptr noundef %60, ptr noundef %61)
  store i32 %62, ptr %15, align 4, !tbaa !19
  %63 = icmp ne i32 %62, 0
  br i1 %63, label %64, label %65

64:                                               ; preds = %58
  br label %68

65:                                               ; preds = %58
  br label %66

66:                                               ; preds = %65
  br label %67

67:                                               ; preds = %66
  br label %68

68:                                               ; preds = %67, %64, %47, %38, %30, %22
  call void @mbedtls_mpi_free(ptr noundef %16)
  %69 = load i32, ptr %15, align 4, !tbaa !19
  call void @llvm.lifetime.end.p0(i64 16, ptr %16) #9
  call void @llvm.lifetime.end.p0(i64 4, ptr %15) #9
  ret i32 %69
}