; Function Attrs: nounwind uwtable
define internal fastcc i32 @ecjpake_mul_secret(ptr noundef nonnull %0, i32 noundef range(i32 -1, 2) %1, ptr noundef %2, ptr noundef %3, ptr noundef %4, ptr noundef %5, ptr noundef %6) unnamed_addr #0 {
  %8 = alloca %struct.mbedtls_mpi, align 8
  call void @llvm.lifetime.start.p0(i64 16, ptr nonnull %8) #15
  call void @mbedtls_mpi_init(ptr noundef nonnull %8) #15
  %9 = call i32 @mbedtls_mpi_fill_random(ptr noundef nonnull %8, i64 noundef 16, ptr noundef %5, ptr noundef %6) #15
  %.not = icmp eq i32 %9, 0
  br i1 %.not, label %10, label %22

10:                                               ; preds = %7
  %11 = call i32 @mbedtls_mpi_mul_mpi(ptr noundef nonnull %8, ptr noundef nonnull %8, ptr noundef %4) #15
  %.not15 = icmp eq i32 %11, 0
  br i1 %.not15, label %12, label %22

12:                                               ; preds = %10
  %13 = call i32 @mbedtls_mpi_add_mpi(ptr noundef nonnull %8, ptr noundef nonnull %8, ptr noundef %3) #15
  %.not16 = icmp eq i32 %13, 0
  br i1 %.not16, label %14, label %22

14:                                               ; preds = %12
  %15 = call i32 @mbedtls_mpi_mul_mpi(ptr noundef nonnull %0, ptr noundef %2, ptr noundef nonnull %8) #15
  %.not17 = icmp eq i32 %15, 0
  br i1 %.not17, label %16, label %22

16:                                               ; preds = %14
  %17 = getelementptr inbounds nuw i8, ptr %0, i64 8
  %18 = load i16, ptr %17, align 8, !tbaa !25
  %19 = trunc nsw i32 %1 to i16
  %20 = mul i16 %18, %19
  store i16 %20, ptr %17, align 8, !tbaa !25
  %21 = call i32 @mbedtls_mpi_mod_mpi(ptr noundef nonnull %0, ptr noundef nonnull %0, ptr noundef %4) #15
  br label %22

22:                                               ; preds = %16, %14, %12, %10, %7
  %.0 = phi i32 [ %9, %7 ], [ %11, %10 ], [ %13, %12 ], [ %15, %14 ], [ %21, %16 ]
  call void @mbedtls_mpi_free(ptr noundef nonnull %8) #15
  call void @llvm.lifetime.end.p0(i64 16, ptr nonnull %8) #15
  ret i32 %.0
}